target datalayout = "e-m:e-p270:32:32-p271:32:32-p272:64:64-i64:64-i128:128-f80:128-n8:16:32:64-S128"
target triple = "x86_64-pc-linux-gnu"

%"class.std::shared_ptr" = type { %"class.std::__shared_ptr" }
%"class.std::__shared_ptr" = type { ptr, %"class.std::__shared_count" }
%"class.std::__shared_count" = type { ptr }
%"class.open_spiel::connect_four::ConnectFourState" = type { %"class.open_spiel::State.base", i32, i32, %"struct.std::array", [4 x i8] }
%"class.open_spiel::State.base" = type <{ ptr, %"class.std::shared_ptr", i32, i32, %"class.std::vector", i32 }>
%"class.std::vector" = type { %"struct.std::_Vector_base" }
%"struct.std::_Vector_base" = type { %"struct.std::_Vector_base<open_spiel::State::PlayerAction, std::allocator<open_spiel::State::PlayerAction>>::_Vector_impl" }
%"struct.std::_Vector_base<open_spiel::State::PlayerAction, std::allocator<open_spiel::State::PlayerAction>>::_Vector_impl" = type { %"struct.std::_Vector_base<open_spiel::State::PlayerAction, std::allocator<open_spiel::State::PlayerAction>>::_Vector_impl_data" }
%"struct.std::_Vector_base<open_spiel::State::PlayerAction, std::allocator<open_spiel::State::PlayerAction>>::_Vector_impl_data" = type { ptr, ptr, ptr }
%"struct.std::array" = type { [42 x i32] }

; Function Attrs: mustprogress nounwind uwtable
define linkonce_odr noundef nonnull align 4 dereferenceable(4) ptr @_ZNSt14__array_traitsIN10open_spiel12connect_four9CellStateELm42EE6_S_refERA42_KS2_m(ptr noundef nonnull align 4 dereferenceable(168) %0, i64 noundef %1) #6 comdat align 2 {
  %3 = alloca ptr, align 8
  %4 = alloca i64, align 8
  store ptr %0, ptr %3, align 8
  store i64 %1, ptr %4, align 8
  %5 = load ptr, ptr %3, align 8
  %6 = load i64, ptr %4, align 8
  %7 = getelementptr inbounds [42 x i32], ptr %5, i64 0, i64 %6
  ret ptr %7
}

; Function Attrs: mustprogress nounwind uwtable
define linkonce_odr noundef nonnull align 4 dereferenceable(4) ptr @_ZNKSt5arrayIN10open_spiel12connect_four9CellStateELm42EEixEm(ptr noundef nonnull align 4 dereferenceable(168) %0, i64 noundef %1) #6 comdat align 2 {
  %3 = alloca ptr, align 8
  %4 = alloca i64, align 8
  store ptr %0, ptr %3, align 8
  store i64 %1, ptr %4, align 8
  %5 = load ptr, ptr %3, align 8
  %6 = getelementptr inbounds nuw %"struct.std::array", ptr %5, i32 0, i32 0
  %7 = load i64, ptr %4, align 8
  %8 = call noundef nonnull align 4 dereferenceable(4) ptr @_ZNSt14__array_traitsIN10open_spiel12connect_four9CellStateELm42EE6_S_refERA42_KS2_m(ptr noundef nonnull align 4 dereferenceable(168) %6, i64 noundef %7) #3
  ret ptr %8
}

; Function Attrs: mustprogress nounwind uwtable
define noundef i32 @_ZNK10open_spiel12connect_four16ConnectFourState6CellAtEii(ptr noundef nonnull align 8 dereferenceable(236) %0, i32 noundef %1, i32 noundef %2) #6 align 2 {
  %4 = alloca ptr, align 8
  %5 = alloca i32, align 4
  %6 = alloca i32, align 4
  store ptr %0, ptr %4, align 8
  store i32 %1, ptr %5, align 4
  store i32 %2, ptr %6, align 4
  %7 = load ptr, ptr %4, align 8
  %8 = getelementptr inbounds nuw %"class.open_spiel::connect_four::ConnectFourState", ptr %7, i32 0, i32 3
  %9 = load i32, ptr %5, align 4
  %10 = mul nsw i32 %9, 7
  %11 = load i32, ptr %6, align 4
  %12 = add nsw i32 %10, %11
  %13 = sext i32 %12 to i64
  %14 = call noundef nonnull align 4 dereferenceable(4) ptr @_ZNKSt5arrayIN10open_spiel12connect_four9CellStateELm42EEixEm(ptr noundef nonnull align 4 dereferenceable(168) %8, i64 noundef %13) #3
  %15 = load i32, ptr %14, align 4
  ret i32 %15
}

; Function Attrs: mustprogress nounwind uwtable
define noundef zeroext i1 @_ZNK10open_spiel12connect_four16ConnectFourState6IsFullEv(ptr noundef nonnull align 8 dereferenceable(236) %0) #6 align 2 {
  %2 = alloca i1, align 1
  %3 = alloca ptr, align 8
  %4 = alloca i32, align 4
  store ptr %0, ptr %3, align 8
  %5 = load ptr, ptr %3, align 8
  store i32 0, ptr %4, align 4
  br label %6

6:                                                ; preds = %15, %1
  %7 = load i32, ptr %4, align 4
  %8 = icmp slt i32 %7, 7
  br i1 %8, label %9, label %18

9:                                                ; preds = %6
  %10 = load i32, ptr %4, align 4
  %11 = call noundef i32 @_ZNK10open_spiel12connect_four16ConnectFourState6CellAtEii(ptr noundef nonnull align 8 dereferenceable(236) %5, i32 noundef 5, i32 noundef %10)
  %12 = icmp eq i32 %11, 0
  br i1 %12, label %13, label %14

13:                                               ; preds = %9
  store i1 false, ptr %2, align 1
  br label %19

14:                                               ; preds = %9
  br label %15

15:                                               ; preds = %14
  %16 = load i32, ptr %4, align 4
  %17 = add nsw i32 %16, 1
  store i32 %17, ptr %4, align 4
  br label %6, !llvm.loop !8

18:                                               ; preds = %6
  store i1 true, ptr %2, align 1
  br label %19

19:                                               ; preds = %18, %13
  %20 = load i1, ptr %2, align 1
  ret i1 %20
}