; Function Attrs: mustprogress nofree norecurse nosync nounwind willreturn memory(argmem: read) uwtable
define noundef zeroext i1 @_ZNK10open_spiel12connect_four16ConnectFourState6IsFullEv(ptr noundef nonnull readonly align 8 captures(none) dereferenceable(236) %0) local_unnamed_addr #7 align 2 {
  %2 = getelementptr inbounds nuw i8, ptr %0, i64 68
  br label %3

3:                                                ; preds = %3, %1
  %indvars.iv = phi i64 [ 0, %1 ], [ %indvars.iv.next, %3 ]
  %4 = add nuw nsw i64 %indvars.iv, 35
  %5 = getelementptr inbounds nuw [42 x i32], ptr %2, i64 0, i64 %4
  %6 = load i32, ptr %5, align 4
  %.not = icmp ne i32 %6, 0
  %indvars.iv.next = add nuw nsw i64 %indvars.iv, 1
  %exitcond = icmp ne i64 %indvars.iv.next, 7
  %or.cond.not = select i1 %.not, i1 %exitcond, i1 false
  br i1 %or.cond.not, label %3, label %7, !llvm.loop !6

7:                                                ; preds = %3
  ret i1 %.not
}